target datalayout = "e-m:e-p270:32:32-p271:32:32-p272:64:64-i64:64-i128:128-f80:128-n8:16:32:64-S128"
target triple = "x86_64-pc-linux-gnu"

%"class.std::vector.0" = type { %"struct.std::_Vector_base.1" }
%"struct.std::_Vector_base.1" = type { %"struct.std::_Vector_base<std::vector<int>, std::allocator<std::vector<int>>>::_Vector_impl" }
%"struct.std::_Vector_base<std::vector<int>, std::allocator<std::vector<int>>>::_Vector_impl" = type { %"struct.std::_Vector_base<std::vector<int>, std::allocator<std::vector<int>>>::_Vector_impl_data" }
%"struct.std::_Vector_base<std::vector<int>, std::allocator<std::vector<int>>>::_Vector_impl_data" = type { ptr, ptr, ptr }
%"class.std::vector.6" = type { %"struct.std::_Vector_base.7" }
%"struct.std::_Vector_base.7" = type { %"struct.std::_Vector_base<int, std::allocator<int>>::_Vector_impl" }
%"struct.std::_Vector_base<int, std::allocator<int>>::_Vector_impl" = type { %"struct.std::_Vector_base<int, std::allocator<int>>::_Vector_impl_data" }
%"struct.std::_Vector_base<int, std::allocator<int>>::_Vector_impl_data" = type { ptr, ptr, ptr }
%"class.std::shared_ptr" = type { %"class.std::__shared_ptr" }
%"class.std::__shared_ptr" = type { ptr, %"class.std::__shared_count" }
%"class.std::__shared_count" = type { ptr }
%"class.open_spiel::backgammon::BackgammonState" = type { %"class.open_spiel::State.base", i32, i8, i32, i32, i32, i32, i32, i8, %"class.std::vector.6", %"class.std::vector.6", %"class.std::vector.6", %"class.std::vector.0", %"class.std::vector.29" }
%"class.open_spiel::State.base" = type <{ ptr, %"class.std::shared_ptr", i32, i32, %"class.std::vector.24", i32 }>
%"class.std::vector.24" = type { %"struct.std::_Vector_base.25" }
%"struct.std::_Vector_base.25" = type { %"struct.std::_Vector_base<open_spiel::State::PlayerAction, std::allocator<open_spiel::State::PlayerAction>>::_Vector_impl" }
%"struct.std::_Vector_base<open_spiel::State::PlayerAction, std::allocator<open_spiel::State::PlayerAction>>::_Vector_impl" = type { %"struct.std::_Vector_base<open_spiel::State::PlayerAction, std::allocator<open_spiel::State::PlayerAction>>::_Vector_impl_data" }
%"struct.std::_Vector_base<open_spiel::State::PlayerAction, std::allocator<open_spiel::State::PlayerAction>>::_Vector_impl_data" = type { ptr, ptr, ptr }
%"class.std::vector.29" = type { %"struct.std::_Vector_base.30" }
%"struct.std::_Vector_base.30" = type { %"struct.std::_Vector_base<open_spiel::backgammon::TurnHistoryInfo, std::allocator<open_spiel::backgammon::TurnHistoryInfo>>::_Vector_impl" }
%"struct.std::_Vector_base<open_spiel::backgammon::TurnHistoryInfo, std::allocator<open_spiel::backgammon::TurnHistoryInfo>>::_Vector_impl" = type { %"struct.std::_Vector_base<open_spiel::backgammon::TurnHistoryInfo, std::allocator<open_spiel::backgammon::TurnHistoryInfo>>::_Vector_impl_data" }
%"struct.std::_Vector_base<open_spiel::backgammon::TurnHistoryInfo, std::allocator<open_spiel::backgammon::TurnHistoryInfo>>::_Vector_impl_data" = type { ptr, ptr, ptr }

; Function Attrs: mustprogress nounwind uwtable
define linkonce_odr noundef nonnull align 4 dereferenceable(4) ptr @_ZNKSt6vectorIiSaIiEEixEm(ptr noundef nonnull align 8 dereferenceable(24) %0, i64 noundef %1) #4 comdat align 2 {
  %3 = alloca ptr, align 8
  %4 = alloca i64, align 8
  store ptr %0, ptr %3, align 8
  store i64 %1, ptr %4, align 8
  %5 = load ptr, ptr %3, align 8
  %6 = getelementptr inbounds nuw %"struct.std::_Vector_base.7", ptr %5, i32 0, i32 0
  %7 = getelementptr inbounds nuw %"struct.std::_Vector_base<int, std::allocator<int>>::_Vector_impl_data", ptr %6, i32 0, i32 0
  %8 = load ptr, ptr %7, align 8
  %9 = load i64, ptr %4, align 8
  %10 = getelementptr inbounds i32, ptr %8, i64 %9
  ret ptr %10
}

; Function Attrs: mustprogress uwtable
define noundef i32 @_ZNK10open_spiel10backgammon15BackgammonState14CheckersInHomeEi(ptr noundef nonnull align 8 dereferenceable(216) %0, i32 noundef %1) #5 align 2 {
  %3 = alloca ptr, align 8
  %4 = alloca i32, align 4
  %5 = alloca i32, align 4
  %6 = alloca i32, align 4
  store ptr %0, ptr %3, align 8
  store i32 %1, ptr %4, align 4
  %7 = load ptr, ptr %3, align 8
  store i32 0, ptr %5, align 4
  store i32 0, ptr %6, align 4
  br label %8

8:                                                ; preds = %25, %2
  %9 = load i32, ptr %6, align 4
  %10 = icmp slt i32 %9, 6
  br i1 %10, label %11, label %28

11:                                               ; preds = %8
  %12 = load i32, ptr %4, align 4
  %13 = load i32, ptr %4, align 4
  %14 = icmp eq i32 %13, 0
  br i1 %14, label %15, label %18

15:                                               ; preds = %11
  %16 = load i32, ptr %6, align 4
  %17 = sub nsw i32 23, %16
  br label %20

18:                                               ; preds = %11
  %19 = load i32, ptr %6, align 4
  br label %20

20:                                               ; preds = %18, %15
  %21 = phi i32 [ %17, %15 ], [ %19, %18 ]
  %22 = call noundef i32 @_ZNK10open_spiel10backgammon15BackgammonState5boardEii(ptr noundef nonnull align 8 dereferenceable(216) %7, i32 noundef %12, i32 noundef %21)
  %23 = load i32, ptr %5, align 4
  %24 = add nsw i32 %23, %22
  store i32 %24, ptr %5, align 4
  br label %25

25:                                               ; preds = %20
  %26 = load i32, ptr %6, align 4
  %27 = add nsw i32 %26, 1
  store i32 %27, ptr %6, align 4
  br label %8, !llvm.loop !10

28:                                               ; preds = %8
  %29 = load i32, ptr %5, align 4
  ret i32 %29
}

; Function Attrs: mustprogress uwtable
define noundef zeroext i1 @_ZNK10open_spiel10backgammon15BackgammonState13IsLegalFromToEiiiii(ptr noundef nonnull align 8 dereferenceable(216) %0, i32 noundef %1, i32 noundef %2, i32 noundef %3, i32 noundef %4, i32 noundef %5) #5 align 2 {
  %7 = alloca i1, align 1
  %8 = alloca ptr, align 8
  %9 = alloca i32, align 4
  %10 = alloca i32, align 4
  %11 = alloca i32, align 4
  %12 = alloca i32, align 4
  %13 = alloca i32, align 4
  %14 = alloca i32, align 4
  %15 = alloca i32, align 4
  %16 = alloca i32, align 4
  store ptr %0, ptr %8, align 8
  store i32 %1, ptr %9, align 4
  store i32 %2, ptr %10, align 4
  store i32 %3, ptr %11, align 4
  store i32 %4, ptr %12, align 4
  store i32 %5, ptr %13, align 4
  %17 = load ptr, ptr %8, align 8
  %18 = load i32, ptr %12, align 4
  %19 = icmp eq i32 %18, 0
  br i1 %19, label %20, label %21

20:                                               ; preds = %6
  store i1 false, ptr %7, align 1
  br label %100

21:                                               ; preds = %6
  %22 = load i32, ptr %13, align 4
  %23 = icmp sgt i32 %22, 1
  br i1 %23, label %24, label %25

24:                                               ; preds = %21
  store i1 false, ptr %7, align 1
  br label %100

25:                                               ; preds = %21
  %26 = load i32, ptr %9, align 4
  %27 = call noundef i32 @_ZNK10open_spiel10backgammon15BackgammonState5boardEii(ptr noundef nonnull align 8 dereferenceable(216) %17, i32 noundef %26, i32 noundef 100)
  store i32 %27, ptr %14, align 4
  %28 = load i32, ptr %14, align 4
  %29 = icmp sgt i32 %28, 0
  br i1 %29, label %30, label %34

30:                                               ; preds = %25
  %31 = load i32, ptr %10, align 4
  %32 = icmp ne i32 %31, 100
  br i1 %32, label %33, label %34

33:                                               ; preds = %30
  store i1 false, ptr %7, align 1
  br label %100

34:                                               ; preds = %30, %25
  %35 = load i32, ptr %11, align 4
  %36 = icmp slt i32 %35, 0
  br i1 %36, label %40, label %37

37:                                               ; preds = %34
  %38 = load i32, ptr %11, align 4
  %39 = icmp sgt i32 %38, 23
  br i1 %39, label %40, label %99

40:                                               ; preds = %37, %34
  %41 = load i32, ptr %9, align 4
  %42 = call noundef i32 @_ZNK10open_spiel10backgammon15BackgammonState14CheckersInHomeEi(ptr noundef nonnull align 8 dereferenceable(216) %17, i32 noundef %41)
  %43 = getelementptr inbounds nuw %"class.open_spiel::backgammon::BackgammonState", ptr %17, i32 0, i32 11
  %44 = load i32, ptr %9, align 4
  %45 = sext i32 %44 to i64
  %46 = call noundef nonnull align 4 dereferenceable(4) ptr @_ZNKSt6vectorIiSaIiEEixEm(ptr noundef nonnull align 8 dereferenceable(24) %43, i64 noundef %45) #3
  %47 = load i32, ptr %46, align 4
  %48 = add nsw i32 %42, %47
  %49 = icmp ne i32 %48, 15
  br i1 %49, label %50, label %51

50:                                               ; preds = %40
  store i1 false, ptr %7, align 1
  br label %100

51:                                               ; preds = %40
  %52 = load i32, ptr %9, align 4
  %53 = icmp eq i32 %52, 0
  br i1 %53, label %54, label %74

54:                                               ; preds = %51
  %55 = load i32, ptr %11, align 4
  %56 = icmp sgt i32 %55, 24
  br i1 %56, label %57, label %74

57:                                               ; preds = %54
  %58 = load i32, ptr %10, align 4
  %59 = sub nsw i32 %58, 1
  store i32 %59, ptr %15, align 4
  br label %60

60:                                               ; preds = %70, %57
  %61 = load i32, ptr %15, align 4
  %62 = icmp sge i32 %61, 18
  br i1 %62, label %63, label %73

63:                                               ; preds = %60
  %64 = load i32, ptr %9, align 4
  %65 = load i32, ptr %15, align 4
  %66 = call noundef i32 @_ZNK10open_spiel10backgammon15BackgammonState5boardEii(ptr noundef nonnull align 8 dereferenceable(216) %17, i32 noundef %64, i32 noundef %65)
  %67 = icmp sgt i32 %66, 0
  br i1 %67, label %68, label %69

68:                                               ; preds = %63
  store i1 false, ptr %7, align 1
  br label %100

69:                                               ; preds = %63
  br label %70

70:                                               ; preds = %69
  %71 = load i32, ptr %15, align 4
  %72 = add nsw i32 %71, -1
  store i32 %72, ptr %15, align 4
  br label %60, !llvm.loop !13

73:                                               ; preds = %60
  br label %98

74:                                               ; preds = %54, %51
  %75 = load i32, ptr %9, align 4
  %76 = icmp eq i32 %75, 1
  br i1 %76, label %77, label %97

77:                                               ; preds = %74
  %78 = load i32, ptr %11, align 4
  %79 = icmp slt i32 %78, -1
  br i1 %79, label %80, label %97

80:                                               ; preds = %77
  %81 = load i32, ptr %10, align 4
  %82 = add nsw i32 %81, 1
  store i32 %82, ptr %16, align 4
  br label %83

83:                                               ; preds = %93, %80
  %84 = load i32, ptr %16, align 4
  %85 = icmp sle i32 %84, 5
  br i1 %85, label %86, label %96

86:                                               ; preds = %83
  %87 = load i32, ptr %9, align 4
  %88 = load i32, ptr %16, align 4
  %89 = call noundef i32 @_ZNK10open_spiel10backgammon15BackgammonState5boardEii(ptr noundef nonnull align 8 dereferenceable(216) %17, i32 noundef %87, i32 noundef %88)
  %90 = icmp sgt i32 %89, 0
  br i1 %90, label %91, label %92

91:                                               ; preds = %86
  store i1 false, ptr %7, align 1
  br label %100

92:                                               ; preds = %86
  br label %93

93:                                               ; preds = %92
  %94 = load i32, ptr %16, align 4
  %95 = add nsw i32 %94, 1
  store i32 %95, ptr %16, align 4
  br label %83, !llvm.loop !14

96:                                               ; preds = %83
  br label %97

97:                                               ; preds = %96, %77, %74
  br label %98

98:                                               ; preds = %97, %73
  br label %99

99:                                               ; preds = %98, %37
  store i1 true, ptr %7, align 1
  br label %100

100:                                              ; preds = %99, %91, %68, %50, %33, %24, %20
  %101 = load i1, ptr %7, align 1
  ret i1 %101
}