; Function Attrs: mustprogress uwtable
define noundef zeroext i1 @_ZNK10open_spiel10backgammon15BackgammonState13IsLegalFromToEiiiii(ptr nocapture noundef nonnull readonly align 8 dereferenceable(216) %0, i32 noundef %1, i32 noundef %2, i32 noundef %3, i32 noundef %4, i32 noundef %5) local_unnamed_addr #4 align 2 personality ptr @__gxx_personality_v0 {
  %7 = icmp eq i32 %4, 0
  %8 = icmp sgt i32 %5, 1
  %or.cond34 = or i1 %7, %8
  br i1 %or.cond34, label %.loopexit, label %9

9:                                                ; preds = %6
  %10 = getelementptr inbounds nuw i8, ptr %0, i64 120
  %11 = sext i32 %1 to i64
  %12 = load ptr, ptr %10, align 8
  %13 = getelementptr inbounds i32, ptr %12, i64 %11
  %.010.i = load i32, ptr %13, align 4
  %14 = icmp sgt i32 %.010.i, 0
  %15 = icmp ne i32 %2, 100
  %or.cond = and i1 %15, %14
  br i1 %or.cond, label %.loopexit, label %16

16:                                               ; preds = %9
  %or.cond3 = icmp ugt i32 %3, 23
  br i1 %or.cond3, label %17, label %.loopexit

17:                                               ; preds = %16
  %18 = icmp eq i32 %1, 0
  br i1 %18, label %.split.us.i, label %.split.i

.split.us.i:                                      ; preds = %17, %.split.us.i
  %.010.us.i = phi i32 [ %22, %.split.us.i ], [ 0, %17 ]
  %.089.us.i = phi i32 [ %21, %.split.us.i ], [ 0, %17 ]
  %19 = sub nuw nsw i32 23, %.010.us.i
  %20 = tail call noundef i32 @_ZNK10open_spiel10backgammon15BackgammonState5boardEii(ptr noundef nonnull readonly align 8 dereferenceable(216) %0, i32 noundef 0, i32 noundef %19)
  %21 = add nsw i32 %20, %.089.us.i
  %22 = add nuw nsw i32 %.010.us.i, 1
  %exitcond15.not.i = icmp eq i32 %22, 6
  br i1 %exitcond15.not.i, label %_ZNK10open_spiel10backgammon15BackgammonState14CheckersInHomeEi.exit, label %.split.us.i, !llvm.loop !30

.split.i:                                         ; preds = %17, %.split.i
  %.010.i35 = phi i32 [ %25, %.split.i ], [ 0, %17 ]
  %.089.i = phi i32 [ %24, %.split.i ], [ 0, %17 ]
  %23 = tail call noundef i32 @_ZNK10open_spiel10backgammon15BackgammonState5boardEii(ptr noundef nonnull readonly align 8 dereferenceable(216) %0, i32 noundef %1, i32 noundef %.010.i35)
  %24 = add nsw i32 %23, %.089.i
  %25 = add nuw nsw i32 %.010.i35, 1
  %exitcond.not.i = icmp eq i32 %25, 6
  br i1 %exitcond.not.i, label %_ZNK10open_spiel10backgammon15BackgammonState14CheckersInHomeEi.exit, label %.split.i, !llvm.loop !30

_ZNK10open_spiel10backgammon15BackgammonState14CheckersInHomeEi.exit: ; preds = %.split.i, %.split.us.i
  %.us-phi.i = phi i32 [ %21, %.split.us.i ], [ %24, %.split.i ]
  %26 = getelementptr inbounds nuw i8, ptr %0, i64 144
  %27 = load ptr, ptr %26, align 8
  %28 = getelementptr inbounds i32, ptr %27, i64 %11
  %29 = load i32, ptr %28, align 4
  %30 = add nsw i32 %29, %.us-phi.i
  %.not = icmp eq i32 %30, 15
  br i1 %.not, label %31, label %.loopexit

31:                                               ; preds = %_ZNK10open_spiel10backgammon15BackgammonState14CheckersInHomeEi.exit
  %32 = icmp sgt i32 %3, 24
  %or.cond5 = and i1 %18, %32
  br i1 %or.cond5, label %.preheader, label %37

.preheader:                                       ; preds = %31, %34
  %.031.in = phi i32 [ %.031, %34 ], [ %2, %31 ]
  %33 = icmp slt i32 %.031.in, 19
  br i1 %33, label %.loopexit, label %34

34:                                               ; preds = %.preheader
  %.031 = add nsw i32 %.031.in, -1
  %35 = tail call noundef i32 @_ZNK10open_spiel10backgammon15BackgammonState5boardEii(ptr noundef nonnull align 8 dereferenceable(216) %0, i32 noundef 0, i32 noundef %.031)
  %36 = icmp sgt i32 %35, 0
  br i1 %36, label %.loopexit, label %.preheader, !llvm.loop !33

37:                                               ; preds = %31
  %38 = icmp eq i32 %1, 1
  %39 = icmp slt i32 %3, -1
  %or.cond7 = and i1 %38, %39
  br i1 %or.cond7, label %.preheader36.preheader, label %.loopexit

.preheader36.preheader:                           ; preds = %37
  %smax = tail call i32 @llvm.smax.i32(i32 %2, i32 5)
  br label %.preheader36

.preheader36:                                     ; preds = %.preheader36.preheader, %40
  %.0.in = phi i32 [ %.0, %40 ], [ %2, %.preheader36.preheader ]
  %exitcond.not = icmp eq i32 %.0.in, %smax
  br i1 %exitcond.not, label %.loopexit, label %40

40:                                               ; preds = %.preheader36
  %.0 = add i32 %.0.in, 1
  %41 = tail call noundef i32 @_ZNK10open_spiel10backgammon15BackgammonState5boardEii(ptr noundef nonnull align 8 dereferenceable(216) %0, i32 noundef 1, i32 noundef %.0)
  %42 = icmp sgt i32 %41, 0
  br i1 %42, label %.loopexit, label %.preheader36, !llvm.loop !34

.loopexit:                                        ; preds = %.preheader36, %40, %.preheader, %34, %16, %37, %_ZNK10open_spiel10backgammon15BackgammonState14CheckersInHomeEi.exit, %9, %6
  %.032 = phi i1 [ false, %6 ], [ false, %9 ], [ false, %_ZNK10open_spiel10backgammon15BackgammonState14CheckersInHomeEi.exit ], [ true, %37 ], [ true, %16 ], [ %33, %34 ], [ %33, %.preheader ], [ %exitcond.not, %40 ], [ %exitcond.not, %.preheader36 ]
  ret i1 %.032
}